(lp1
V{
aV"
aVr
aVe
aVv
aVi
aVw
aVI
aVD
aV:
aV 
aVA
aVU
aV0
aVO
aVL
aVX
aVB
aV3
aVK
aVT
aV,
aVa
aVs
aVn
aV4
aV9
aVS
aV8
aVN
aVm
aVC
aVu
aVt
aVo
aVh
aVl
aVp
aVf
aV[
aV]
aVx
aVG
aVd
aVy
aVk
aV.
aV(
aV1
aV5
aV)
aV!
aVH
aVR
aV2
aV7
aV}
aV\u000a
aVZ
aVQ
aVE
aVg
aVF
aVj
aVc
aVV
aVW
aV'
aVb
aV6
aVM
aVz
aV$
aVJ
aVP
aVY
aV\u005c
aV-
aV/
aV?
aV_
aVq
aV&
aV#
aV;
aV+
aV%
aV`
aV~
aV@
aV*
aV=
aV>
aV^
a.